target datalayout = "e-m:e-p270:32:32-p271:32:32-p272:64:64-i64:64-i128:128-f80:128-n8:16:32:64-S128"
target triple = "x86_64-pc-linux-gnu"

%struct._priv_exr_part_t = type { i32, i32, %struct.exr_attribute_list, ptr, ptr, ptr, ptr, ptr, ptr, ptr, ptr, ptr, ptr, ptr, ptr, ptr, ptr, %struct.exr_attr_box2i_t, %struct.exr_attr_box2i_t, i32, i32, i32, float, i32, i32, ptr, ptr, ptr, ptr, i64, i16, i16, i32, i64, i64 }
%struct.exr_attribute_list = type { i32, i32, ptr, ptr }
%struct.exr_attr_box2i_t = type { %struct.exr_attr_v2i_t, %struct.exr_attr_v2i_t }
%struct.exr_attr_v2i_t = type { i32, i32 }
%struct._priv_exr_context_t = type { i8, i8, i8, i8, i8, i8, i8, i8, %struct.exr_attr_string_t, %struct.exr_attr_string_t, ptr, ptr, ptr, ptr, ptr, ptr, ptr, ptr, i32, i32, i32, i32, i32, float, ptr, ptr, ptr, i64, ptr, ptr, i64, i32, i32, i32, i32, %struct._priv_exr_part_t, ptr, ptr, %struct.exr_attribute_list, %union.pthread_mutex_t, i8, i8, [2 x i8], i32 }
%struct.exr_attr_string_t = type { i32, i32, ptr }
%union.pthread_mutex_t = type { %struct.__pthread_mutex_s }
%struct.__pthread_mutex_s = type { i32, i32, i32, i32, i32, i16, i16, %struct.__pthread_internal_list }
%struct.__pthread_internal_list = type { ptr, ptr }
%struct.exr_coding_channel_info_t = type { ptr, i32, i32, i32, i32, i8, i8, i16, i16, i16, i32, i32, %union.anon.0 }
%union.anon.0 = type { ptr }
%struct.exr_chunk_info_t = type { i32, i32, i32, i32, i32, i8, i8, i8, i8, i64, i64, i64, i64, i64 }
%struct._exr_encode_pipeline = type { i64, ptr, i16, i16, i32, ptr, %struct.exr_chunk_info_t, ptr, ptr, i64, i64, ptr, i64, ptr, i64, i64, ptr, i64, i64, ptr, i64, ptr, i64, ptr, ptr, ptr, ptr, ptr, ptr, [5 x %struct.exr_coding_channel_info_t] }

@.str.1 = private unnamed_addr constant [29 x i8] c"Part index (%d) out of range\00", align 1

; Function Attrs: nounwind uwtable
define hidden i32 @internal_encode_free_buffer(ptr noundef %0, i32 noundef %1, ptr noundef %2, ptr noundef %3) #0 {
  %5 = alloca i32, align 4
  %6 = alloca ptr, align 8
  %7 = alloca i32, align 4
  %8 = alloca ptr, align 8
  %9 = alloca ptr, align 8
  %10 = alloca ptr, align 8
  %11 = alloca i64, align 8
  %12 = alloca ptr, align 8
  %13 = alloca i32, align 4
  store ptr %0, ptr %6, align 8, !tbaa !63
  store i32 %1, ptr %7, align 4, !tbaa !28
  store ptr %2, ptr %8, align 8, !tbaa !3
  store ptr %3, ptr %9, align 8, !tbaa !65
  call void @llvm.lifetime.start.p0(i64 8, ptr %10) #4
  %14 = load ptr, ptr %8, align 8, !tbaa !3
  %15 = load ptr, ptr %14, align 8, !tbaa !10
  store ptr %15, ptr %10, align 8, !tbaa !10
  call void @llvm.lifetime.start.p0(i64 8, ptr %11) #4
  %16 = load ptr, ptr %9, align 8, !tbaa !65
  %17 = load i64, ptr %16, align 8, !tbaa !67
  store i64 %17, ptr %11, align 8, !tbaa !67
  %18 = load ptr, ptr %10, align 8, !tbaa !10
  %19 = icmp ne ptr %18, null
  br i1 %19, label %20, label %74

20:                                               ; preds = %4
  %21 = load i64, ptr %11, align 8, !tbaa !67
  %22 = icmp ugt i64 %21, 0
  br i1 %22, label %23, label %72

23:                                               ; preds = %20
  %24 = load ptr, ptr %6, align 8, !tbaa !63
  %25 = getelementptr inbounds nuw %struct._exr_encode_pipeline, ptr %24, i32 0, i32 24
  %26 = load ptr, ptr %25, align 8, !tbaa !68
  %27 = icmp ne ptr %26, null
  br i1 %27, label %28, label %34

28:                                               ; preds = %23
  %29 = load ptr, ptr %6, align 8, !tbaa !63
  %30 = getelementptr inbounds nuw %struct._exr_encode_pipeline, ptr %29, i32 0, i32 24
  %31 = load ptr, ptr %30, align 8, !tbaa !68
  %32 = load i32, ptr %7, align 4, !tbaa !28
  %33 = load ptr, ptr %10, align 8, !tbaa !10
  call void %31(i32 noundef %32, ptr noundef %33)
  br label %71

34:                                               ; preds = %23
  call void @llvm.lifetime.start.p0(i64 8, ptr %12) #4
  %35 = load ptr, ptr %6, align 8, !tbaa !63
  %36 = getelementptr inbounds nuw %struct._exr_encode_pipeline, ptr %35, i32 0, i32 5
  %37 = load ptr, ptr %36, align 8, !tbaa !70
  store ptr %37, ptr %12, align 8, !tbaa !11
  %38 = load ptr, ptr %12, align 8, !tbaa !11
  %39 = icmp ne ptr %38, null
  br i1 %39, label %41, label %40

40:                                               ; preds = %34
  store i32 2, ptr %5, align 4
  store i32 1, ptr %13, align 4
  br label %68

41:                                               ; preds = %34
  %42 = load ptr, ptr %6, align 8, !tbaa !63
  %43 = getelementptr inbounds nuw %struct._exr_encode_pipeline, ptr %42, i32 0, i32 4
  %44 = load i32, ptr %43, align 4, !tbaa !71
  %45 = icmp slt i32 %44, 0
  br i1 %45, label %54, label %46

46:                                               ; preds = %41
  %47 = load ptr, ptr %6, align 8, !tbaa !63
  %48 = getelementptr inbounds nuw %struct._exr_encode_pipeline, ptr %47, i32 0, i32 4
  %49 = load i32, ptr %48, align 4, !tbaa !71
  %50 = load ptr, ptr %12, align 8, !tbaa !11
  %51 = getelementptr inbounds nuw %struct._priv_exr_context_t, ptr %50, i32 0, i32 34
  %52 = load i32, ptr %51, align 4, !tbaa !72
  %53 = icmp sge i32 %49, %52
  br i1 %53, label %54, label %63

54:                                               ; preds = %46, %41
  %55 = load ptr, ptr %12, align 8, !tbaa !11
  %56 = getelementptr inbounds nuw %struct._priv_exr_context_t, ptr %55, i32 0, i32 14
  %57 = load ptr, ptr %56, align 8, !tbaa !61
  %58 = load ptr, ptr %12, align 8, !tbaa !11
  %59 = load ptr, ptr %6, align 8, !tbaa !63
  %60 = getelementptr inbounds nuw %struct._exr_encode_pipeline, ptr %59, i32 0, i32 4
  %61 = load i32, ptr %60, align 4, !tbaa !71
  %62 = call i32 (ptr, i32, ptr, ...) %57(ptr noundef %58, i32 noundef 4, ptr noundef @.str.1, i32 noundef %61)
  store i32 %62, ptr %5, align 4
  store i32 1, ptr %13, align 4
  br label %68

63:                                               ; preds = %46
  %64 = load ptr, ptr %12, align 8, !tbaa !11
  %65 = getelementptr inbounds nuw %struct._priv_exr_context_t, ptr %64, i32 0, i32 17
  %66 = load ptr, ptr %65, align 8, !tbaa !73
  %67 = load ptr, ptr %10, align 8, !tbaa !10
  call void %66(ptr noundef %67)
  store i32 0, ptr %13, align 4
  br label %68

68:                                               ; preds = %63, %54, %40
  call void @llvm.lifetime.end.p0(i64 8, ptr %12) #4
  %69 = load i32, ptr %13, align 4
  switch i32 %69, label %76 [
    i32 0, label %70
  ]

70:                                               ; preds = %68
  br label %71

71:                                               ; preds = %70, %28
  br label %72

72:                                               ; preds = %71, %20
  %73 = load ptr, ptr %8, align 8, !tbaa !3
  store ptr null, ptr %73, align 8, !tbaa !10
  br label %74

74:                                               ; preds = %72, %4
  %75 = load ptr, ptr %9, align 8, !tbaa !65
  store i64 0, ptr %75, align 8, !tbaa !67
  store i32 0, ptr %5, align 4
  store i32 1, ptr %13, align 4
  br label %76

76:                                               ; preds = %74, %68
  call void @llvm.lifetime.end.p0(i64 8, ptr %11) #4
  call void @llvm.lifetime.end.p0(i64 8, ptr %10) #4
  %77 = load i32, ptr %5, align 4
  ret i32 %77
}