; Function Attrs: nounwind uwtable
define hidden i32 @internal_encode_free_buffer(ptr noundef readonly captures(none) %0, i32 noundef %1, ptr noundef captures(none) %2, ptr noundef captures(none) %3) local_unnamed_addr #0 {
  %5 = load ptr, ptr %2, align 8, !tbaa !51
  %.not = icmp eq ptr %5, null
  br i1 %.not, label %30, label %6

6:                                                ; preds = %4
  %7 = load i64, ptr %3, align 8, !tbaa !55
  %.not26 = icmp eq i64 %7, 0
  br i1 %.not26, label %29, label %8

8:                                                ; preds = %6
  %9 = getelementptr inbounds nuw i8, ptr %0, i64 232
  %10 = load ptr, ptr %9, align 8, !tbaa !56
  %.not27 = icmp eq ptr %10, null
  br i1 %.not27, label %12, label %11

11:                                               ; preds = %8
  tail call void %10(i32 noundef %1, ptr noundef nonnull %5) #2
  br label %29

12:                                               ; preds = %8
  %13 = getelementptr inbounds nuw i8, ptr %0, i64 24
  %14 = load ptr, ptr %13, align 8, !tbaa !59
  %.not28 = icmp eq ptr %14, null
  br i1 %.not28, label %.thread, label %15

15:                                               ; preds = %12
  %16 = getelementptr inbounds nuw i8, ptr %0, i64 20
  %17 = load i32, ptr %16, align 4, !tbaa !60
  %18 = icmp slt i32 %17, 0
  br i1 %18, label %22, label %19

19:                                               ; preds = %15
  %20 = getelementptr inbounds nuw i8, ptr %14, i64 196
  %21 = load i32, ptr %20, align 4, !tbaa !61
  %.not29 = icmp slt i32 %17, %21
  br i1 %.not29, label %26, label %22

22:                                               ; preds = %19, %15
  %23 = getelementptr inbounds nuw i8, ptr %14, i64 72
  %24 = load ptr, ptr %23, align 8, !tbaa !54
  %25 = tail call i32 (ptr, i32, ptr, ...) %24(ptr noundef nonnull %14, i32 noundef 4, ptr noundef nonnull @.str.1, i32 noundef %17) #2
  br label %.thread

26:                                               ; preds = %19
  %27 = getelementptr inbounds nuw i8, ptr %14, i64 96
  %28 = load ptr, ptr %27, align 8, !tbaa !62
  tail call void %28(ptr noundef nonnull %5) #2
  br label %29

29:                                               ; preds = %26, %11, %6
  store ptr null, ptr %2, align 8, !tbaa !51
  br label %30

30:                                               ; preds = %29, %4
  store i64 0, ptr %3, align 8, !tbaa !55
  br label %.thread

.thread:                                          ; preds = %12, %22, %30
  %.1 = phi i32 [ 0, %30 ], [ 2, %12 ], [ %25, %22 ]
  ret i32 %.1
}